; Function Attrs: mustprogress nounwind uwtable
define hidden void @_ZN10XMarkCacheD2Ev(ptr nocapture noundef nonnull align 8 dereferenceable(24584) %0) unnamed_addr #2 align 2 {
  %2 = getelementptr inbounds i8, ptr %0, i64 8
  br label %3

3:                                                ; preds = %1, %_ZN15XMarkCacheEntry5evictEv.exit
  %.03 = phi i64 [ 0, %1 ], [ %15, %_ZN15XMarkCacheEntry5evictEv.exit ]
  %4 = getelementptr inbounds [1024 x %class.XMarkCacheEntry], ptr %2, i64 0, i64 %.03
  %5 = load ptr, ptr %4, align 8
  %.not.i = icmp eq ptr %5, null
  br i1 %.not.i, label %_ZN15XMarkCacheEntry5evictEv.exit, label %6

6:                                                ; preds = %3
  %7 = getelementptr inbounds i8, ptr %4, i64 8
  %8 = load i32, ptr %7, align 8
  %9 = getelementptr inbounds i8, ptr %4, i64 16
  %10 = load i64, ptr %9, align 8
  %11 = getelementptr inbounds i8, ptr %5, i64 36
  %12 = tail call noundef i32 asm sideeffect "lock xaddl $0,($2)", "=r,0,r,~{cc},~{memory},~{dirflag},~{fpsr},~{flags}"(i32 %8, ptr nonnull %11) #6, !srcloc !6
  %13 = getelementptr inbounds i8, ptr %5, i64 40
  %14 = tail call noundef i64 asm sideeffect "lock xaddq $0,($2)", "=r,0,r,~{cc},~{memory},~{dirflag},~{fpsr},~{flags}"(i64 %10, ptr nonnull %13) #6, !srcloc !7
  store ptr null, ptr %4, align 8
  br label %_ZN15XMarkCacheEntry5evictEv.exit

_ZN15XMarkCacheEntry5evictEv.exit:                ; preds = %3, %6
  %15 = add nuw nsw i64 %.03, 1
  %exitcond.not = icmp eq i64 %15, 1024
  br i1 %exitcond.not, label %16, label %3, !llvm.loop !8

16:                                               ; preds = %_ZN15XMarkCacheEntry5evictEv.exit
  ret void
}